

Microchip MPLAB XC8 Assembler V2.05 build -831301201 
                                                                                               Tue Apr 09 20:28:03 2019

Microchip MPLAB XC8 C Compiler v2.05 (Free license) build 20181220022703 Og1 
     1                           	processor	18F46K22
     2                           	fnconf	rparam,??,?,0
     3                           	opt	pw 120
     4                           	opt	flic
     5                           	psect	cinit,global,reloc=2,class=CODE,delta=1
     6                           	psect	bssCOMRAM,global,class=COMRAM,space=1,delta=1,noexec
     7                           	psect	cstackCOMRAM,global,class=COMRAM,space=1,delta=1,noexec
     8                           	psect	text0,global,reloc=2,class=CODE,delta=1
     9                           	psect	text1,global,reloc=2,class=CODE,delta=1
    10                           	psect	text2,global,reloc=2,class=CODE,delta=1
    11                           	psect	text3,global,reloc=2,class=CODE,delta=1
    12                           	psect	text4,global,reloc=2,class=CODE,delta=1
    13                           	psect	text5,global,reloc=2,class=CODE,delta=1
    14                           	psect	intcode,global,reloc=2,class=CODE,delta=1
    15                           	psect	text7,global,reloc=2,class=CODE,delta=1
    16                           	psect	text8,global,reloc=2,class=CODE,delta=1
    17                           	psect	text9,global,reloc=2,class=CODE,delta=1
    18                           	psect	intsave_regs,global,class=BIGRAM,space=1,delta=1,noexec
    19                           	psect	rparam,global,class=COMRAM,space=1,delta=1,noexec
    20                           	psect	temp,global,ovrld,common,class=COMRAM,space=1,delta=1
    21  0000                     
    22                           ; Version 2.05
    23                           ; Generated 20/12/2018 GMT
    24                           ; 
    25                           ; Copyright © 2018, Microchip Technology Inc. and its subsidiaries ("Microchip")
    26                           ; All rights reserved.
    27                           ; 
    28                           ; This software is developed by Microchip Technology Inc. and its subsidiaries ("Microch
      +                          ip").
    29                           ; 
    30                           ; Redistribution and use in source and binary forms, with or without modification, are
    31                           ; permitted provided that the following conditions are met:
    32                           ; 
    33                           ;     1. Redistributions of source code must retain the above copyright notice, this lis
      +                          t of
    34                           ;        conditions and the following disclaimer.
    35                           ; 
    36                           ;     2. Redistributions in binary form must reproduce the above copyright notice, this 
      +                          list
    37                           ;        of conditions and the following disclaimer in the documentation and/or other
    38                           ;        materials provided with the distribution.
    39                           ; 
    40                           ;     3. Microchip's name may not be used to endorse or promote products derived from th
      +                          is
    41                           ;        software without specific prior written permission.
    42                           ; 
    43                           ; THIS SOFTWARE IS PROVIDED BY MICROCHIP "AS IS" AND ANY EXPRESS OR IMPLIED WARRANTIES,
    44                           ; INCLUDING, BUT NOT LIMITED TO, THE IMPLIED WARRANTIES OF MERCHANTABILITY AND FITNESS F
      +                          OR
    45                           ; PURPOSE ARE DISCLAIMED.  IN NO EVENT SHALL MICROCHIP BE LIABLE FOR ANY DIRECT, INDIREC
      +                          T,
    46                           ; INCIDENTAL, SPECIAL, EXEMPLARY, OR CONSEQUENTIAL DAMAGES (INCLUDING BUT NOT LIMITED TO
    47                           ; PROCUREMENT OF SUBSTITUTE GOODS OR SERVICES; LOSS OF USE, DATA OR PROFITS; OR BUSINESS
    48                           ; INTERRUPTION) HOWSOEVER CAUSED AND ON ANY THEORY OF LIABILITY, WHETHER IN CONTRACT, ST
      +                          RICT
    49                           ; LIABILITY, OR TORT (INCLUDING NEGLIGENCE OR OTHERWISE) ARISING IN ANY WAY OUT OF THE U
      +                          SE OF
    50                           ; THIS SOFTWARE, EVEN IF ADVISED OF THE POSSIBILITY OF SUCH DAMAGE.
    51                           ; 
    52                           ; 
    53                           ; Code-generator required, PIC18F46K22 Definitions
    54                           ; 
    55                           ; SFR Addresses
    56  0000                     _ANSELAbits	set	3896
    57  0000                     _ANSELE	set	3900
    58  0000                     _ANSELD	set	3899
    59  0000                     _ANSELC	set	3898
    60  0000                     _ANSELB	set	3897
    61  0000                     _ANSELA	set	3896
    62  0000                     _RCSTA1bits	set	4011
    63  0000                     _TXSTA1bits	set	4012
    64  0000                     _SPBRG1	set	4015
    65  0000                     _RCONbits	set	4048
    66  0000                     _PIE1bits	set	3997
    67  0000                     _PIE2	set	4000
    68  0000                     _PIE1	set	3997
    69  0000                     _PIR2	set	4001
    70  0000                     _PIR1	set	3998
    71  0000                     _INTCON3	set	4080
    72  0000                     _INTCON2	set	4081
    73  0000                     _INTCON	set	4082
    74  0000                     _LATDbits	set	3980
    75  0000                     _TMR1H	set	4047
    76  0000                     _TMR1L	set	4046
    77  0000                     _T1CONbits	set	4045
    78  0000                     _TXREG	set	4013
    79  0000                     _PIR1bits	set	3998
    80  0000                     _ADRESH	set	4036
    81  0000                     _ADCON0bits	set	4034
    82  0000                     _ADCON0	set	4034
    83  0000                     _ADCON2bits	set	4032
    84  0000                     _ADCON2	set	4032
    85  0000                     _ADCON1	set	4033
    86  0000                     _TRISAbits	set	3986
    87  0000                     _LATE	set	3981
    88  0000                     _LATD	set	3980
    89  0000                     _LATC	set	3979
    90  0000                     _LATB	set	3978
    91  0000                     _LATA	set	3977
    92  0000                     _PORTE	set	3972
    93  0000                     _PORTD	set	3971
    94  0000                     _PORTC	set	3970
    95  0000                     _PORTB	set	3969
    96  0000                     _PORTA	set	3968
    97  0000                     _TRISE	set	3990
    98  0000                     _TRISD	set	3989
    99  0000                     _TRISC	set	3988
   100  0000                     _TRISB	set	3987
   101  0000                     _TRISA	set	3986
   102  0000                     _INTCONbits	set	4082
   103  0000                     _OSCTUNEbits	set	3995
   104  0000                     _OSCCONbits	set	4051
   105                           
   106                           ; #config settings
   107  0000                     
   108                           	psect	cinit
   109  000224                     __pcinit:
   110                           	opt callstack 0
   111  000224                     start_initialization:
   112                           	opt callstack 0
   113  000224                     __initialization:
   114                           	opt callstack 0
   115                           
   116                           ; Clear objects allocated to COMRAM (22 bytes)
   117  000224  EE00  F001         	lfsr	0,__pbssCOMRAM
   118  000228  0E16               	movlw	22
   119  00022A                     clear_0:
   120  00022A  6AEE               	clrf	postinc0,c
   121  00022C  06E8               	decf	wreg,f,c
   122  00022E  E1FD               	bnz	clear_0
   123  000230                     end_of_initialization:
   124                           	opt callstack 0
   125  000230                     __end_of__initialization:
   126                           	opt callstack 0
   127  000230  9022               	bcf	int$flags,0,c	;clear compiler interrupt flag (level 1)
   128  000232  9222               	bcf	int$flags,1,c	;clear compiler interrupt flag (level 2)
   129  000234  0E00               	movlw	low (__Lmediumconst shr (0+16))
   130  000236  6EF8               	movwf	tblptru,c
   131  000238  0100               	movlb	0
   132  00023A  EF04  F001         	goto	_main	;jump to C main() function
   133                           
   134                           	psect	bssCOMRAM
   135  000001                     __pbssCOMRAM:
   136                           	opt callstack 0
   137  000001                     _out_buffer:
   138                           	opt callstack 0
   139  000001                     	ds	10
   140  00000B                     _str_i:
   141                           	opt callstack 0
   142  00000B                     	ds	8
   143  000013                     _rez_adc:
   144                           	opt callstack 0
   145  000013                     	ds	2
   146  000015                     _counter_max:
   147                           	opt callstack 0
   148  000015                     	ds	1
   149  000016                     _int_counter:
   150                           	opt callstack 0
   151  000016                     	ds	1
   152                           
   153                           	psect	cstackCOMRAM
   154  000017                     __pcstackCOMRAM:
   155                           	opt callstack 0
   156  000017                     write_raw@ch:
   157                           	opt callstack 0
   158                           
   159                           ; 1 bytes @ 0x0
   160  000017                     	ds	1
   161  000018                     send_data@i:
   162                           	opt callstack 0
   163                           
   164                           ; 1 bytes @ 0x1
   165  000018                     	ds	1
   166  000019                     ??_timebase_interrupt:
   167                           
   168                           ; 1 bytes @ 0x2
   169  000019                     	ds	2
   170  00001B                     ??_timer:
   171                           
   172                           ; 1 bytes @ 0x4
   173  00001B                     	ds	2
   174  00001D                     init_data_out@baud_rate:
   175                           	opt callstack 0
   176                           
   177                           ; 2 bytes @ 0x6
   178  00001D                     	ds	2
   179  00001F                     ??_init_data_out:
   180                           
   181                           ; 1 bytes @ 0x8
   182  00001F                     	ds	2
   183  000021                     ??_main:
   184                           
   185                           ; 1 bytes @ 0xA
   186  000021                     	ds	1
   187                           
   188 ;;
   189 ;;Main: autosize = 0, tempsize = 1, incstack = 0, save=0
   190 ;;
   191 ;; *************** function _main *****************
   192 ;; Defined at:
   193 ;;		line 23 in file "main.c"
   194 ;; Parameters:    Size  Location     Type
   195 ;;		None
   196 ;; Auto vars:     Size  Location     Type
   197 ;;		None
   198 ;; Return value:  Size  Location     Type
   199 ;;                  1    wreg      void 
   200 ;; Registers used:
   201 ;;		wreg, status,2, status,0, cstack
   202 ;; Tracked objects:
   203 ;;		On entry : 0/0
   204 ;;		On exit  : 0/0
   205 ;;		Unchanged: 0/0
   206 ;; Data sizes:     COMRAM   BANK0   BANK1   BANK2   BANK3   BANK4   BANK5   BANK6   BANK7   BANK8   BANK9  BANK10  BANK1
      +1  BANK12  BANK13  BANK14  BANK15
   207 ;;      Params:         0       0       0       0       0       0       0       0       0       0       0       0       
      +0       0       0       0       0
   208 ;;      Locals:         0       0       0       0       0       0       0       0       0       0       0       0       
      +0       0       0       0       0
   209 ;;      Temps:          1       0       0       0       0       0       0       0       0       0       0       0       
      +0       0       0       0       0
   210 ;;      Totals:         1       0       0       0       0       0       0       0       0       0       0       0       
      +0       0       0       0       0
   211 ;;Total ram usage:        1 bytes
   212 ;; Hardware stack levels required when called:    6
   213 ;; This function calls:
   214 ;;		_adc_config
   215 ;;		_config
   216 ;;		_read_Uout
   217 ;; This function is called by:
   218 ;;		Startup code after reset
   219 ;; This function uses a non-reentrant model
   220 ;;
   221                           
   222                           	psect	text0
   223  000208                     __ptext0:
   224                           	opt callstack 0
   225  000208                     _main:
   226                           	opt callstack 25
   227                           
   228                           ;main.c: 24: config();
   229                           
   230                           ;incstack = 0
   231  000208  EC8B  F000         	call	_config	;wreg free
   232                           
   233                           ;main.c: 25: adc_config();
   234  00020C  EC1F  F001         	call	_adc_config	;wreg free
   235  000210                     l1266:
   236                           
   237                           ;main.c: 28: {;main.c: 29: read_Uout();
   238  000210  ECE2  F000         	call	_read_Uout	;wreg free
   239                           
   240                           ;main.c: 30: _delay((unsigned long)((10)*(64000000/4000.0)));
   241  000214  0ED0               	movlw	208
   242  000216  6E21               	movwf	??_main& (0+255),c
   243  000218  0ECA               	movlw	202
   244  00021A                     u157:
   245  00021A  2EE8               	decfsz	wreg,f,c
   246  00021C  D7FE               	bra	u157
   247  00021E  2E21               	decfsz	??_main& (0+255),f,c
   248  000220  D7FC               	bra	u157
   249  000222  D7F6               	goto	l1266
   250  000224                     __end_of_main:
   251                           	opt callstack 0
   252                           
   253 ;; *************** function _read_Uout *****************
   254 ;; Defined at:
   255 ;;		line 37 in file "main.c"
   256 ;; Parameters:    Size  Location     Type
   257 ;;		None
   258 ;; Auto vars:     Size  Location     Type
   259 ;;		None
   260 ;; Return value:  Size  Location     Type
   261 ;;                  1    wreg      void 
   262 ;; Registers used:
   263 ;;		wreg, status,2
   264 ;; Tracked objects:
   265 ;;		On entry : 0/0
   266 ;;		On exit  : 0/0
   267 ;;		Unchanged: 0/0
   268 ;; Data sizes:     COMRAM   BANK0   BANK1   BANK2   BANK3   BANK4   BANK5   BANK6   BANK7   BANK8   BANK9  BANK10  BANK1
      +1  BANK12  BANK13  BANK14  BANK15
   269 ;;      Params:         0       0       0       0       0       0       0       0       0       0       0       0       
      +0       0       0       0       0
   270 ;;      Locals:         0       0       0       0       0       0       0       0       0       0       0       0       
      +0       0       0       0       0
   271 ;;      Temps:          0       0       0       0       0       0       0       0       0       0       0       0       
      +0       0       0       0       0
   272 ;;      Totals:         0       0       0       0       0       0       0       0       0       0       0       0       
      +0       0       0       0       0
   273 ;;Total ram usage:        0 bytes
   274 ;; Hardware stack levels used:    1
   275 ;; Hardware stack levels required when called:    4
   276 ;; This function calls:
   277 ;;		Nothing
   278 ;; This function is called by:
   279 ;;		_main
   280 ;; This function uses a non-reentrant model
   281 ;;
   282                           
   283                           	psect	text1
   284  0001C4                     __ptext1:
   285                           	opt callstack 0
   286  0001C4                     _read_Uout:
   287                           	opt callstack 26
   288                           
   289                           ;main.c: 39: ADCON0=0b00000011;
   290                           
   291                           ;incstack = 0
   292  0001C4  0E03               	movlw	3
   293  0001C6  6EC2               	movwf	4034,c	;volatile
   294                           
   295                           ;main.c: 40: _delay((unsigned long)((100)*(64000000/4000000.0)));
   296  0001C8  0EE4               	movlw	228
   297  0001CA                     u167:
   298  0001CA  D000               	nop2	
   299  0001CC  D000               	nop2	
   300  0001CE  2EE8               	decfsz	wreg,f,c
   301  0001D0  D7FC               	bra	u167
   302  0001D2  D000               	nop2	
   303  0001D4  D000               	nop2	
   304                           
   305                           ;main.c: 41: ADCON0bits.GO=1;
   306  0001D6  82C2               	bsf	4034,1,c	;volatile
   307  0001D8                     l99:
   308  0001D8  B2C2               	btfsc	4034,1,c	;volatile
   309  0001DA  D7FE               	goto	l99
   310                           
   311                           ;main.c: 43: rez_adc=ADRESH;
   312  0001DC  CFC4 F013          	movff	4036,_rez_adc	;volatile
   313  0001E0  6A14               	clrf	_rez_adc+1,c
   314                           
   315                           ;main.c: 44: out_buffer[0]=rez_adc;
   316  0001E2  C013  F001         	movff	_rez_adc,_out_buffer
   317  0001E6  0012               	return		;funcret
   318  0001E8                     __end_of_read_Uout:
   319                           	opt callstack 0
   320                           
   321 ;; *************** function _config *****************
   322 ;; Defined at:
   323 ;;		line 15 in file "config.c"
   324 ;; Parameters:    Size  Location     Type
   325 ;;		None
   326 ;; Auto vars:     Size  Location     Type
   327 ;;		None
   328 ;; Return value:  Size  Location     Type
   329 ;;                  1    wreg      void 
   330 ;; Registers used:
   331 ;;		wreg, status,2, status,0, cstack
   332 ;; Tracked objects:
   333 ;;		On entry : 0/0
   334 ;;		On exit  : 0/0
   335 ;;		Unchanged: 0/0
   336 ;; Data sizes:     COMRAM   BANK0   BANK1   BANK2   BANK3   BANK4   BANK5   BANK6   BANK7   BANK8   BANK9  BANK10  BANK1
      +1  BANK12  BANK13  BANK14  BANK15
   337 ;;      Params:         0       0       0       0       0       0       0       0       0       0       0       0       
      +0       0       0       0       0
   338 ;;      Locals:         0       0       0       0       0       0       0       0       0       0       0       0       
      +0       0       0       0       0
   339 ;;      Temps:          0       0       0       0       0       0       0       0       0       0       0       0       
      +0       0       0       0       0
   340 ;;      Totals:         0       0       0       0       0       0       0       0       0       0       0       0       
      +0       0       0       0       0
   341 ;;Total ram usage:        0 bytes
   342 ;; Hardware stack levels used:    1
   343 ;; Hardware stack levels required when called:    5
   344 ;; This function calls:
   345 ;;		_init_data_out
   346 ;;		_init_timebase
   347 ;; This function is called by:
   348 ;;		_main
   349 ;; This function uses a non-reentrant model
   350 ;;
   351                           
   352                           	psect	text2
   353  000116                     __ptext2:
   354                           	opt callstack 0
   355  000116                     _config:
   356                           	opt callstack 25
   357                           
   358                           ;config.c: 18: OSCCONbits.IRCF0=1;
   359                           
   360                           ;incstack = 0
   361  000116  88D3               	bsf	4051,4,c	;volatile
   362                           
   363                           ;config.c: 19: OSCCONbits.IRCF1=1;
   364  000118  8AD3               	bsf	4051,5,c	;volatile
   365                           
   366                           ;config.c: 20: OSCCONbits.IRCF2=1;
   367  00011A  8CD3               	bsf	4051,6,c	;volatile
   368                           
   369                           ;config.c: 21: OSCTUNEbits.PLLEN = 1;
   370  00011C  8C9B               	bsf	3995,6,c	;volatile
   371                           
   372                           ;config.c: 22: INTCONbits.GIE=0;
   373  00011E  9EF2               	bcf	4082,7,c	;volatile
   374                           
   375                           ;config.c: 24: ANSELA=0X00;
   376  000120  0E00               	movlw	0
   377  000122  010F               	movlb	15	; () banked
   378  000124  6F38               	movwf	56,b	;volatile
   379                           
   380                           ;config.c: 25: ANSELB=0X00;
   381  000126  0E00               	movlw	0
   382  000128  6F39               	movwf	57,b	;volatile
   383                           
   384                           ;config.c: 26: ANSELC=0X00;
   385  00012A  0E00               	movlw	0
   386  00012C  6F3A               	movwf	58,b	;volatile
   387                           
   388                           ;config.c: 27: ANSELD=0X00;
   389  00012E  0E00               	movlw	0
   390  000130  6F3B               	movwf	59,b	;volatile
   391                           
   392                           ;config.c: 28: ANSELE=0X00;
   393  000132  0E00               	movlw	0
   394  000134  6F3C               	movwf	60,b	;volatile
   395                           
   396                           ;config.c: 29: TRISA=0X00;
   397  000136  0E00               	movlw	0
   398  000138  6E92               	movwf	3986,c	;volatile
   399                           
   400                           ;config.c: 30: TRISB=0X00;
   401  00013A  0E00               	movlw	0
   402  00013C  6E93               	movwf	3987,c	;volatile
   403                           
   404                           ;config.c: 31: TRISC=0X00;
   405  00013E  0E00               	movlw	0
   406  000140  6E94               	movwf	3988,c	;volatile
   407                           
   408                           ;config.c: 32: TRISD=0X00;
   409  000142  0E00               	movlw	0
   410  000144  6E95               	movwf	3989,c	;volatile
   411                           
   412                           ;config.c: 33: TRISE=0X00;
   413  000146  0E00               	movlw	0
   414  000148  6E96               	movwf	3990,c	;volatile
   415                           
   416                           ;config.c: 34: PORTA=0X00;
   417  00014A  0E00               	movlw	0
   418  00014C  6E80               	movwf	3968,c	;volatile
   419                           
   420                           ;config.c: 35: PORTB=0X00;
   421  00014E  0E00               	movlw	0
   422  000150  6E81               	movwf	3969,c	;volatile
   423                           
   424                           ;config.c: 36: PORTC=0X00;
   425  000152  0E00               	movlw	0
   426  000154  6E82               	movwf	3970,c	;volatile
   427                           
   428                           ;config.c: 37: PORTD=0X00;
   429  000156  0E00               	movlw	0
   430  000158  6E83               	movwf	3971,c	;volatile
   431                           
   432                           ;config.c: 38: PORTE=0X00;
   433  00015A  0E00               	movlw	0
   434  00015C  6E84               	movwf	3972,c	;volatile
   435                           
   436                           ;config.c: 39: LATA=0X00;
   437  00015E  0E00               	movlw	0
   438  000160  6E89               	movwf	3977,c	;volatile
   439                           
   440                           ;config.c: 40: LATB=0X00;
   441  000162  0E00               	movlw	0
   442  000164  6E8A               	movwf	3978,c	;volatile
   443                           
   444                           ;config.c: 41: LATC=0X00;
   445  000166  0E00               	movlw	0
   446  000168  6E8B               	movwf	3979,c	;volatile
   447                           
   448                           ;config.c: 42: LATD=0X00;
   449  00016A  0E00               	movlw	0
   450  00016C  6E8C               	movwf	3980,c	;volatile
   451                           
   452                           ;config.c: 43: LATE=0X00;
   453  00016E  0E00               	movlw	0
   454  000170  6E8D               	movwf	3981,c	;volatile
   455                           
   456                           ; BSR set to: 15
   457                           ;config.c: 49: init_data_out(115200);
   458  000172  0EC2               	movlw	194
   459  000174  6E1E               	movwf	init_data_out@baud_rate+1,c
   460  000176  0E00               	movlw	0
   461  000178  6E1D               	movwf	init_data_out@baud_rate,c
   462  00017A  EC52  F000         	call	_init_data_out	;wreg free
   463                           
   464                           ;config.c: 50: init_timebase();
   465  00017E  ECC2  F000         	call	_init_timebase	;wreg free
   466  000182  0012               	return		;funcret
   467  000184                     __end_of_config:
   468                           	opt callstack 0
   469                           
   470 ;; *************** function _init_timebase *****************
   471 ;; Defined at:
   472 ;;		line 89 in file "data_out.c"
   473 ;; Parameters:    Size  Location     Type
   474 ;;		None
   475 ;; Auto vars:     Size  Location     Type
   476 ;;		None
   477 ;; Return value:  Size  Location     Type
   478 ;;                  1    wreg      void 
   479 ;; Registers used:
   480 ;;		wreg, status,2
   481 ;; Tracked objects:
   482 ;;		On entry : 0/0
   483 ;;		On exit  : 0/0
   484 ;;		Unchanged: 0/0
   485 ;; Data sizes:     COMRAM   BANK0   BANK1   BANK2   BANK3   BANK4   BANK5   BANK6   BANK7   BANK8   BANK9  BANK10  BANK1
      +1  BANK12  BANK13  BANK14  BANK15
   486 ;;      Params:         0       0       0       0       0       0       0       0       0       0       0       0       
      +0       0       0       0       0
   487 ;;      Locals:         0       0       0       0       0       0       0       0       0       0       0       0       
      +0       0       0       0       0
   488 ;;      Temps:          0       0       0       0       0       0       0       0       0       0       0       0       
      +0       0       0       0       0
   489 ;;      Totals:         0       0       0       0       0       0       0       0       0       0       0       0       
      +0       0       0       0       0
   490 ;;Total ram usage:        0 bytes
   491 ;; Hardware stack levels used:    1
   492 ;; Hardware stack levels required when called:    4
   493 ;; This function calls:
   494 ;;		Nothing
   495 ;; This function is called by:
   496 ;;		_config
   497 ;; This function uses a non-reentrant model
   498 ;;
   499                           
   500                           	psect	text3
   501  000184                     __ptext3:
   502                           	opt callstack 0
   503  000184                     _init_timebase:
   504                           	opt callstack 25
   505                           
   506                           ;data_out.c: 91: TMR1L=0;
   507                           
   508                           ;incstack = 0
   509  000184  0E00               	movlw	0
   510  000186  6ECE               	movwf	4046,c	;volatile
   511                           
   512                           ;data_out.c: 92: TMR1H=61;
   513  000188  0E3D               	movlw	61
   514  00018A  6ECF               	movwf	4047,c	;volatile
   515                           
   516                           ;data_out.c: 93: T1CONbits.RD16=0;
   517  00018C  92CD               	bcf	4045,1,c	;volatile
   518                           
   519                           ;data_out.c: 94: T1CONbits.T1CKPS1=1;
   520  00018E  8ACD               	bsf	4045,5,c	;volatile
   521                           
   522                           ;data_out.c: 95: T1CONbits.T1CKPS0=1;
   523  000190  88CD               	bsf	4045,4,c	;volatile
   524                           
   525                           ;data_out.c: 96: T1CONbits.TMR1CS=0;
   526  000192  0E3F               	movlw	-193
   527  000194  16CD               	andwf	4045,f,c	;volatile
   528                           
   529                           ;data_out.c: 97: T1CONbits.T1OSCEN=0;
   530  000196  96CD               	bcf	4045,3,c	;volatile
   531                           
   532                           ;data_out.c: 98: T1CONbits.TMR1ON=0;
   533  000198  90CD               	bcf	4045,0,c	;volatile
   534                           
   535                           ;data_out.c: 99: T1CONbits.TMR1ON=1;
   536  00019A  80CD               	bsf	4045,0,c	;volatile
   537                           
   538                           ;data_out.c: 103: INTCON=0x00;
   539  00019C  0E00               	movlw	0
   540  00019E  6EF2               	movwf	4082,c	;volatile
   541                           
   542                           ;data_out.c: 104: INTCON2=0x00;
   543  0001A0  0E00               	movlw	0
   544  0001A2  6EF1               	movwf	4081,c	;volatile
   545                           
   546                           ;data_out.c: 105: INTCON3=0x00;
   547  0001A4  0E00               	movlw	0
   548  0001A6  6EF0               	movwf	4080,c	;volatile
   549                           
   550                           ;data_out.c: 106: PIR1=0x00;
   551  0001A8  0E00               	movlw	0
   552  0001AA  6E9E               	movwf	3998,c	;volatile
   553                           
   554                           ;data_out.c: 107: PIR2=0x00;
   555  0001AC  0E00               	movlw	0
   556  0001AE  6EA1               	movwf	4001,c	;volatile
   557                           
   558                           ;data_out.c: 108: PIE1=0x00;
   559  0001B0  0E00               	movlw	0
   560  0001B2  6E9D               	movwf	3997,c	;volatile
   561                           
   562                           ;data_out.c: 109: PIE2=0x00;
   563  0001B4  0E00               	movlw	0
   564  0001B6  6EA0               	movwf	4000,c	;volatile
   565                           
   566                           ;data_out.c: 111: INTCONbits.GIE=1;
   567  0001B8  8EF2               	bsf	4082,7,c	;volatile
   568                           
   569                           ;data_out.c: 112: INTCONbits.PEIE=1;
   570  0001BA  8CF2               	bsf	4082,6,c	;volatile
   571                           
   572                           ;data_out.c: 113: PIE1bits.TMR1IE=1;
   573  0001BC  809D               	bsf	3997,0,c	;volatile
   574                           
   575                           ;data_out.c: 114: PIR1bits.TMR1IF=0;
   576  0001BE  909E               	bcf	3998,0,c	;volatile
   577                           
   578                           ;data_out.c: 116: RCONbits.IPEN=0;
   579  0001C0  9ED0               	bcf	4048,7,c	;volatile
   580  0001C2  0012               	return		;funcret
   581  0001C4                     __end_of_init_timebase:
   582                           	opt callstack 0
   583                           
   584 ;; *************** function _init_data_out *****************
   585 ;; Defined at:
   586 ;;		line 121 in file "data_out.c"
   587 ;; Parameters:    Size  Location     Type
   588 ;;  baud_rate       2    6[COMRAM] int 
   589 ;; Auto vars:     Size  Location     Type
   590 ;;		None
   591 ;; Return value:  Size  Location     Type
   592 ;;                  1    wreg      void 
   593 ;; Registers used:
   594 ;;		wreg, status,2, status,0
   595 ;; Tracked objects:
   596 ;;		On entry : 0/0
   597 ;;		On exit  : 0/0
   598 ;;		Unchanged: 0/0
   599 ;; Data sizes:     COMRAM   BANK0   BANK1   BANK2   BANK3   BANK4   BANK5   BANK6   BANK7   BANK8   BANK9  BANK10  BANK1
      +1  BANK12  BANK13  BANK14  BANK15
   600 ;;      Params:         2       0       0       0       0       0       0       0       0       0       0       0       
      +0       0       0       0       0
   601 ;;      Locals:         0       0       0       0       0       0       0       0       0       0       0       0       
      +0       0       0       0       0
   602 ;;      Temps:          2       0       0       0       0       0       0       0       0       0       0       0       
      +0       0       0       0       0
   603 ;;      Totals:         4       0       0       0       0       0       0       0       0       0       0       0       
      +0       0       0       0       0
   604 ;;Total ram usage:        4 bytes
   605 ;; Hardware stack levels used:    1
   606 ;; Hardware stack levels required when called:    4
   607 ;; This function calls:
   608 ;;		Nothing
   609 ;; This function is called by:
   610 ;;		_config
   611 ;; This function uses a non-reentrant model
   612 ;;
   613                           
   614                           	psect	text4
   615  0000A4                     __ptext4:
   616                           	opt callstack 0
   617  0000A4                     _init_data_out:
   618                           	opt callstack 25
   619                           
   620                           ;data_out.c: 124: switch(baud_rate)
   621                           
   622                           ;incstack = 0
   623  0000A4  D009               	goto	l1186
   624  0000A6                     l1176:
   625                           
   626                           ;data_out.c: 127: SPBRG1=103;
   627  0000A6  0E67               	movlw	103
   628  0000A8  D005               	goto	L3
   629  0000AA                     l1178:
   630                           
   631                           ;data_out.c: 130: SPBRG1=207;
   632  0000AA  0ECF               	movlw	207
   633  0000AC  D003               	goto	L3
   634  0000AE                     l1180:
   635                           
   636                           ;data_out.c: 133: SPBRG1=68;
   637  0000AE  0E44               	movlw	68
   638  0000B0  D001               	goto	L3
   639  0000B2                     l1182:
   640                           
   641                           ;data_out.c: 136: SPBRG1=34;
   642  0000B2  0E22               	movlw	34
   643  0000B4                     L3:
   644  0000B4  6EAF               	movwf	4015,c	;volatile
   645                           
   646                           ;data_out.c: 137: break;
   647  0000B6  D025               	goto	l184
   648  0000B8                     l1186:
   649  0000B8  C01D  F01F         	movff	init_data_out@baud_rate,??_init_data_out
   650  0000BC  C01E  F020         	movff	init_data_out@baud_rate+1,??_init_data_out+1
   651                           
   652                           ; Switch on 2 bytes has been partitioned into a top level switch of size 1, and 4 sub-sw
      +                          itches
   653                           ; Switch size 1, requested type "simple"
   654                           ; Number of cases is 4, Range of values is 37 to 225
   655                           ; switch strategies available:
   656                           ; Name         Instructions Cycles
   657                           ; simple_byte           13     7 (average)
   658                           ;	Chosen strategy is simple_byte
   659  0000C0  5020               	movf	??_init_data_out+1,w,c
   660  0000C2  0A25               	xorlw	37	; case 37
   661  0000C4  B4D8               	btfsc	status,2,c
   662  0000C6  D00A               	goto	l1372
   663  0000C8  0A6E               	xorlw	110	; case 75
   664  0000CA  B4D8               	btfsc	status,2,c
   665  0000CC  D00C               	goto	l1374
   666  0000CE  0A89               	xorlw	137	; case 194
   667  0000D0  B4D8               	btfsc	status,2,c
   668  0000D2  D00E               	goto	l1376
   669  0000D4  0A23               	xorlw	35	; case 225
   670  0000D6  B4D8               	btfsc	status,2,c
   671  0000D8  D010               	goto	l1378
   672  0000DA  D013               	goto	l184
   673  0000DC                     l1372:
   674                           
   675                           ; Switch size 1, requested type "simple"
   676                           ; Number of cases is 1, Range of values is 128 to 128
   677                           ; switch strategies available:
   678                           ; Name         Instructions Cycles
   679                           ; simple_byte            4     3 (average)
   680                           ;	Chosen strategy is simple_byte
   681  0000DC  501F               	movf	??_init_data_out,w,c
   682  0000DE  0A80               	xorlw	128	; case 128
   683  0000E0  B4D8               	btfsc	status,2,c
   684  0000E2  D7E1               	goto	l1176
   685  0000E4  D00E               	goto	l184
   686  0000E6                     l1374:
   687                           
   688                           ; Switch size 1, requested type "simple"
   689                           ; Number of cases is 1, Range of values is 0 to 0
   690                           ; switch strategies available:
   691                           ; Name         Instructions Cycles
   692                           ; simple_byte            4     3 (average)
   693                           ;	Chosen strategy is simple_byte
   694  0000E6  501F               	movf	??_init_data_out,w,c
   695  0000E8  0A00               	xorlw	0	; case 0
   696  0000EA  B4D8               	btfsc	status,2,c
   697  0000EC  D7DE               	goto	l1178
   698  0000EE  D009               	goto	l184
   699  0000F0                     l1376:
   700                           
   701                           ; Switch size 1, requested type "simple"
   702                           ; Number of cases is 1, Range of values is 0 to 0
   703                           ; switch strategies available:
   704                           ; Name         Instructions Cycles
   705                           ; simple_byte            4     3 (average)
   706                           ;	Chosen strategy is simple_byte
   707  0000F0  501F               	movf	??_init_data_out,w,c
   708  0000F2  0A00               	xorlw	0	; case 0
   709  0000F4  B4D8               	btfsc	status,2,c
   710  0000F6  D7DD               	goto	l1182
   711  0000F8  D004               	goto	l184
   712  0000FA                     l1378:
   713                           
   714                           ; Switch size 1, requested type "simple"
   715                           ; Number of cases is 1, Range of values is 0 to 0
   716                           ; switch strategies available:
   717                           ; Name         Instructions Cycles
   718                           ; simple_byte            4     3 (average)
   719                           ;	Chosen strategy is simple_byte
   720  0000FA  501F               	movf	??_init_data_out,w,c
   721  0000FC  0A00               	xorlw	0	; case 0
   722  0000FE  B4D8               	btfsc	status,2,c
   723  000100  D7D6               	goto	l1180
   724  000102                     l184:
   725                           
   726                           ;data_out.c: 140: TXSTA1bits.TX9=0;
   727  000102  9CAC               	bcf	4012,6,c	;volatile
   728                           
   729                           ;data_out.c: 141: TXSTA1bits.TXEN=1;
   730  000104  8AAC               	bsf	4012,5,c	;volatile
   731                           
   732                           ;data_out.c: 142: TXSTA1bits.SYNC=0;
   733  000106  98AC               	bcf	4012,4,c	;volatile
   734                           
   735                           ;data_out.c: 143: TXSTA1bits.BRGH=1;
   736  000108  84AC               	bsf	4012,2,c	;volatile
   737                           
   738                           ;data_out.c: 146: RCSTA1bits.SPEN=1;
   739  00010A  8EAB               	bsf	4011,7,c	;volatile
   740                           
   741                           ;data_out.c: 147: RCSTA1bits.RX9=0;
   742  00010C  9CAB               	bcf	4011,6,c	;volatile
   743                           
   744                           ;data_out.c: 148: RCSTA1bits.CREN=1;
   745  00010E  88AB               	bsf	4011,4,c	;volatile
   746                           
   747                           ;data_out.c: 149: RCSTA1bits.ADDEN=0;
   748  000110  96AB               	bcf	4011,3,c	;volatile
   749                           
   750                           ;data_out.c: 153: PIE1bits.RC1IE=0;
   751  000112  9A9D               	bcf	3997,5,c	;volatile
   752  000114  0012               	return		;funcret
   753  000116                     __end_of_init_data_out:
   754                           	opt callstack 0
   755                           
   756 ;; *************** function _adc_config *****************
   757 ;; Defined at:
   758 ;;		line 54 in file "config.c"
   759 ;; Parameters:    Size  Location     Type
   760 ;;		None
   761 ;; Auto vars:     Size  Location     Type
   762 ;;		None
   763 ;; Return value:  Size  Location     Type
   764 ;;                  1    wreg      void 
   765 ;; Registers used:
   766 ;;		wreg, status,2
   767 ;; Tracked objects:
   768 ;;		On entry : 0/0
   769 ;;		On exit  : 0/0
   770 ;;		Unchanged: 0/0
   771 ;; Data sizes:     COMRAM   BANK0   BANK1   BANK2   BANK3   BANK4   BANK5   BANK6   BANK7   BANK8   BANK9  BANK10  BANK1
      +1  BANK12  BANK13  BANK14  BANK15
   772 ;;      Params:         0       0       0       0       0       0       0       0       0       0       0       0       
      +0       0       0       0       0
   773 ;;      Locals:         0       0       0       0       0       0       0       0       0       0       0       0       
      +0       0       0       0       0
   774 ;;      Temps:          0       0       0       0       0       0       0       0       0       0       0       0       
      +0       0       0       0       0
   775 ;;      Totals:         0       0       0       0       0       0       0       0       0       0       0       0       
      +0       0       0       0       0
   776 ;;Total ram usage:        0 bytes
   777 ;; Hardware stack levels used:    1
   778 ;; Hardware stack levels required when called:    4
   779 ;; This function calls:
   780 ;;		Nothing
   781 ;; This function is called by:
   782 ;;		_main
   783 ;; This function uses a non-reentrant model
   784 ;;
   785                           
   786                           	psect	text5
   787  00023E                     __ptext5:
   788                           	opt callstack 0
   789  00023E                     _adc_config:
   790                           	opt callstack 26
   791                           
   792                           ;config.c: 57: TRISAbits.RA0=1;
   793                           
   794                           ;incstack = 0
   795  00023E  8092               	bsf	3986,0,c	;volatile
   796                           
   797                           ;config.c: 58: ANSELAbits.ANSA0=1;
   798  000240  010F               	movlb	15	; () banked
   799  000242  8138               	bsf	56,0,b	;volatile
   800                           
   801                           ; BSR set to: 15
   802                           ;config.c: 59: ADCON1=0b10000000;
   803  000244  0E80               	movlw	128
   804  000246  6EC1               	movwf	4033,c	;volatile
   805                           
   806                           ;config.c: 60: ADCON2=0b00111110;
   807  000248  0E3E               	movlw	62
   808  00024A  6EC0               	movwf	4032,c	;volatile
   809                           
   810                           ; BSR set to: 15
   811                           ;config.c: 61: ADCON2bits.ADFM=0;
   812  00024C  9EC0               	bcf	4032,7,c	;volatile
   813                           
   814                           ; BSR set to: 15
   815  00024E  0012               	return		;funcret
   816  000250                     __end_of_adc_config:
   817                           	opt callstack 0
   818                           
   819 ;; *************** function _timer *****************
   820 ;; Defined at:
   821 ;;		line 47 in file "main.c"
   822 ;; Parameters:    Size  Location     Type
   823 ;;		None
   824 ;; Auto vars:     Size  Location     Type
   825 ;;		None
   826 ;; Return value:  Size  Location     Type
   827 ;;                  1    wreg      void 
   828 ;; Registers used:
   829 ;;		wreg, fsr2l, fsr2h, status,2, status,0, cstack
   830 ;; Tracked objects:
   831 ;;		On entry : 0/0
   832 ;;		On exit  : 0/0
   833 ;;		Unchanged: 0/0
   834 ;; Data sizes:     COMRAM   BANK0   BANK1   BANK2   BANK3   BANK4   BANK5   BANK6   BANK7   BANK8   BANK9  BANK10  BANK1
      +1  BANK12  BANK13  BANK14  BANK15
   835 ;;      Params:         0       0       0       0       0       0       0       0       0       0       0       0       
      +0       0       0       0       0
   836 ;;      Locals:         0       0       0       0       0       0       0       0       0       0       0       0       
      +0       0       0       0       0
   837 ;;      Temps:          2       0       0       0       0       0       0       0       0       0       0       0       
      +0       0       0       0       0
   838 ;;      Totals:         2       0       0       0       0       0       0       0       0       0       0       0       
      +0       0       0       0       0
   839 ;;Total ram usage:        2 bytes
   840 ;; Hardware stack levels used:    1
   841 ;; Hardware stack levels required when called:    3
   842 ;; This function calls:
   843 ;;		_timebase_interrupt
   844 ;; This function is called by:
   845 ;;		Interrupt level 2
   846 ;; This function uses a non-reentrant model
   847 ;;
   848                           
   849                           	psect	intcode
   850  000008                     __pintcode:
   851                           	opt callstack 0
   852  000008                     _timer:
   853                           	opt callstack 25
   854                           
   855                           ; BSR set to: 15
   856                           ;incstack = 0
   857  000008  8222               	bsf	btemp,1,c	;set compiler interrupt flag (level 2)
   858  00000A  CFD9 F01B          	movff	fsr2l,??_timer
   859  00000E  CFDA F01C          	movff	fsr2h,??_timer+1
   860                           
   861                           ;main.c: 48: timebase_interrupt();
   862  000012  EC13  F000         	call	_timebase_interrupt	;wreg free
   863  000016  C01C  FFDA         	movff	??_timer+1,fsr2h
   864  00001A  C01B  FFD9         	movff	??_timer,fsr2l
   865  00001E  9222               	bcf	btemp,1,c	;clear compiler interrupt flag (level 2)
   866  000020  0011               	retfie		f
   867  000022                     __end_of_timer:
   868                           	opt callstack 0
   869                           
   870 ;; *************** function _timebase_interrupt *****************
   871 ;; Defined at:
   872 ;;		line 39 in file "data_out.c"
   873 ;; Parameters:    Size  Location     Type
   874 ;;		None
   875 ;; Auto vars:     Size  Location     Type
   876 ;;		None
   877 ;; Return value:  Size  Location     Type
   878 ;;                  1    wreg      void 
   879 ;; Registers used:
   880 ;;		wreg, fsr2l, fsr2h, status,2, status,0, cstack
   881 ;; Tracked objects:
   882 ;;		On entry : 0/0
   883 ;;		On exit  : 0/0
   884 ;;		Unchanged: 0/0
   885 ;; Data sizes:     COMRAM   BANK0   BANK1   BANK2   BANK3   BANK4   BANK5   BANK6   BANK7   BANK8   BANK9  BANK10  BANK1
      +1  BANK12  BANK13  BANK14  BANK15
   886 ;;      Params:         0       0       0       0       0       0       0       0       0       0       0       0       
      +0       0       0       0       0
   887 ;;      Locals:         0       0       0       0       0       0       0       0       0       0       0       0       
      +0       0       0       0       0
   888 ;;      Temps:          2       0       0       0       0       0       0       0       0       0       0       0       
      +0       0       0       0       0
   889 ;;      Totals:         2       0       0       0       0       0       0       0       0       0       0       0       
      +0       0       0       0       0
   890 ;;Total ram usage:        2 bytes
   891 ;; Hardware stack levels used:    1
   892 ;; Hardware stack levels required when called:    2
   893 ;; This function calls:
   894 ;;		_send_data
   895 ;; This function is called by:
   896 ;;		_timer
   897 ;; This function uses a non-reentrant model
   898 ;;
   899                           
   900                           	psect	text7
   901  000026                     __ptext7:
   902                           	opt callstack 0
   903  000026                     _timebase_interrupt:
   904                           	opt callstack 25
   905                           
   906                           ;data_out.c: 40: if(PIR1bits.TMR1IF==1)
   907                           
   908                           ;incstack = 0
   909  000026  A09E               	btfss	3998,0,c	;volatile
   910  000028  0012               	return	
   911                           
   912                           ;data_out.c: 41: {;data_out.c: 42: PIR1bits.TMR1IF=0;
   913  00002A  909E               	bcf	3998,0,c	;volatile
   914                           
   915                           ;data_out.c: 45: if(100 == 100)
   916  00002C  90CD               	bcf	4045,0,c	;volatile
   917  00002E  D012               	goto	i2l1244
   918  000030                     i2l1234:
   919                           
   920                           ;data_out.c: 52: TMR1L=0;
   921  000030  0E00               	movlw	0
   922  000032  6ECE               	movwf	4046,c	;volatile
   923                           
   924                           ;data_out.c: 53: TMR1H=61;
   925  000034  0E3D               	movlw	61
   926  000036  6ECF               	movwf	4047,c	;volatile
   927                           
   928                           ;data_out.c: 54: counter_max=4;
   929  000038  0E04               	movlw	4
   930  00003A  D004               	goto	L4
   931  00003C                     i2l1236:
   932                           
   933                           ;data_out.c: 58: TMR1L=0;
   934  00003C  0E00               	movlw	0
   935  00003E  6ECE               	movwf	4046,c	;volatile
   936                           
   937                           ;data_out.c: 59: TMR1H=60;
   938  000040  0E3C               	movlw	60
   939  000042  D005               	goto	L5
   940  000044                     L4:
   941  000044  6E15               	movwf	_counter_max,c
   942                           
   943                           ;data_out.c: 61: break;
   944  000046  D017               	goto	i2l1246
   945  000048                     i2l1238:
   946                           
   947                           ;data_out.c: 64: TMR1L=128;
   948  000048  0E80               	movlw	128
   949  00004A  6ECE               	movwf	4046,c	;volatile
   950                           
   951                           ;data_out.c: 65: TMR1H=177;
   952  00004C  0EB1               	movlw	177
   953  00004E                     L5:
   954  00004E  6ECF               	movwf	4047,c	;volatile
   955                           
   956                           ;data_out.c: 66: counter_max=1;
   957  000050  0E01               	movlw	1
   958  000052  D7F8               	goto	L4
   959  000054                     i2l1244:
   960  000054  0E64               	movlw	100
   961  000056  6E19               	movwf	??_timebase_interrupt& (0+255),c
   962  000058  0E00               	movlw	0
   963  00005A  6E1A               	movwf	(??_timebase_interrupt+1)& (0+255),c
   964                           
   965                           ; Switch on 2 bytes has been partitioned into a top level switch of size 1, and 1 sub-sw
      +                          itches
   966                           ; Switch size 1, requested type "simple"
   967                           ; Number of cases is 1, Range of values is 0 to 0
   968                           ; switch strategies available:
   969                           ; Name         Instructions Cycles
   970                           ; simple_byte            4     3 (average)
   971                           ;	Chosen strategy is simple_byte
   972  00005C  501A               	movf	??_timebase_interrupt+1,w,c
   973  00005E  0A00               	xorlw	0	; case 0
   974  000060  A4D8               	btfss	status,2,c
   975  000062  D7E6               	goto	i2l1234
   976                           
   977                           ; Switch size 1, requested type "simple"
   978                           ; Number of cases is 3, Range of values is 10 to 100
   979                           ; switch strategies available:
   980                           ; Name         Instructions Cycles
   981                           ; simple_byte           10     6 (average)
   982                           ;	Chosen strategy is simple_byte
   983  000064  5019               	movf	??_timebase_interrupt,w,c
   984  000066  0A0A               	xorlw	10	; case 10
   985  000068  B4D8               	btfsc	status,2,c
   986  00006A  D7EE               	goto	i2l1238
   987  00006C  0A13               	xorlw	19	; case 25
   988  00006E  B4D8               	btfsc	status,2,c
   989  000070  D7E5               	goto	i2l1236
   990  000072  0A7D               	xorlw	125	; case 100
   991  000074  D7DD               	goto	i2l1234
   992  000076                     i2l1246:
   993                           
   994                           ;data_out.c: 75: if(int_counter==counter_max)
   995  000076  5015               	movf	_counter_max,w,c
   996  000078  1816               	xorwf	_int_counter,w,c
   997  00007A  A4D8               	btfss	status,2,c
   998  00007C  D010               	goto	i2l1254
   999                           
  1000                           ;data_out.c: 76: {;data_out.c: 77: LATDbits.LATD1=!LATDbits.LATD1;
  1001  00007E  B28C               	btfsc	3980,1,c	;volatile
  1002  000080  D003               	goto	i2u13_40
  1003  000082  6A19               	clrf	??_timebase_interrupt& (0+255),c
  1004  000084  2A19               	incf	??_timebase_interrupt& (0+255),f,c
  1005  000086  D001               	goto	i2u14_48
  1006  000088                     i2u13_40:
  1007  000088  6A19               	clrf	??_timebase_interrupt& (0+255),c
  1008  00008A                     i2u14_48:
  1009  00008A  4619               	rlncf	??_timebase_interrupt,f,c
  1010  00008C  508C               	movf	3980,w,c	;volatile
  1011  00008E  1819               	xorwf	??_timebase_interrupt,w,c
  1012  000090  0BFD               	andlw	-3
  1013  000092  1819               	xorwf	??_timebase_interrupt,w,c
  1014  000094  6E8C               	movwf	3980,c	;volatile
  1015                           
  1016                           ;data_out.c: 78: send_data();
  1017  000096  ECF4  F000         	call	_send_data	;wreg free
  1018                           
  1019                           ;data_out.c: 79: int_counter=0;
  1020  00009A  0E00               	movlw	0
  1021  00009C  6E16               	movwf	_int_counter,c
  1022  00009E                     i2l1254:
  1023                           
  1024                           ;data_out.c: 80: };data_out.c: 82: int_counter++;
  1025  00009E  2A16               	incf	_int_counter,f,c
  1026                           
  1027                           ;data_out.c: 83: T1CONbits.TMR1ON=1;
  1028  0000A0  80CD               	bsf	4045,0,c	;volatile
  1029  0000A2  0012               	return		;funcret
  1030  0000A4                     __end_of_timebase_interrupt:
  1031                           	opt callstack 0
  1032                           
  1033 ;; *************** function _send_data *****************
  1034 ;; Defined at:
  1035 ;;		line 24 in file "data_out.c"
  1036 ;; Parameters:    Size  Location     Type
  1037 ;;		None
  1038 ;; Auto vars:     Size  Location     Type
  1039 ;;  i               1    1[COMRAM] unsigned char 
  1040 ;; Return value:  Size  Location     Type
  1041 ;;                  1    wreg      void 
  1042 ;; Registers used:
  1043 ;;		wreg, fsr2l, fsr2h, status,2, status,0, cstack
  1044 ;; Tracked objects:
  1045 ;;		On entry : 0/0
  1046 ;;		On exit  : 0/0
  1047 ;;		Unchanged: 0/0
  1048 ;; Data sizes:     COMRAM   BANK0   BANK1   BANK2   BANK3   BANK4   BANK5   BANK6   BANK7   BANK8   BANK9  BANK10  BANK1
      +1  BANK12  BANK13  BANK14  BANK15
  1049 ;;      Params:         0       0       0       0       0       0       0       0       0       0       0       0       
      +0       0       0       0       0
  1050 ;;      Locals:         1       0       0       0       0       0       0       0       0       0       0       0       
      +0       0       0       0       0
  1051 ;;      Temps:          0       0       0       0       0       0       0       0       0       0       0       0       
      +0       0       0       0       0
  1052 ;;      Totals:         1       0       0       0       0       0       0       0       0       0       0       0       
      +0       0       0       0       0
  1053 ;;Total ram usage:        1 bytes
  1054 ;; Hardware stack levels used:    1
  1055 ;; Hardware stack levels required when called:    1
  1056 ;; This function calls:
  1057 ;;		_write_raw
  1058 ;; This function is called by:
  1059 ;;		_timebase_interrupt
  1060 ;; This function uses a non-reentrant model
  1061 ;;
  1062                           
  1063                           	psect	text8
  1064  0001E8                     __ptext8:
  1065                           	opt callstack 0
  1066  0001E8                     _send_data:
  1067                           	opt callstack 25
  1068                           
  1069                           ;data_out.c: 25: for(char i=0;i<2;i++)
  1070                           
  1071                           ;incstack = 0
  1072  0001E8  0E00               	movlw	0
  1073  0001EA  6E18               	movwf	send_data@i,c
  1074  0001EC                     i2l1210:
  1075                           
  1076                           ;data_out.c: 26: {;data_out.c: 27: write_raw(out_buffer[i]);
  1077  0001EC  0E01               	movlw	low _out_buffer
  1078  0001EE  2418               	addwf	send_data@i,w,c
  1079  0001F0  6ED9               	movwf	fsr2l,c
  1080  0001F2  6ADA               	clrf	fsr2h,c
  1081  0001F4  0E00               	movlw	high _out_buffer
  1082  0001F6  22DA               	addwfc	fsr2h,f,c
  1083  0001F8  50DF               	movf	indf2,w,c
  1084  0001FA  EC28  F001         	call	_write_raw
  1085  0001FE  2A18               	incf	send_data@i,f,c
  1086  000200  0E01               	movlw	1
  1087  000202  6418               	cpfsgt	send_data@i,c
  1088  000204  D7F3               	goto	i2l1210
  1089  000206  0012               	return	
  1090  000208                     __end_of_send_data:
  1091                           	opt callstack 0
  1092                           
  1093 ;; *************** function _write_raw *****************
  1094 ;; Defined at:
  1095 ;;		line 32 in file "data_out.c"
  1096 ;; Parameters:    Size  Location     Type
  1097 ;;  ch              1    wreg     unsigned char 
  1098 ;; Auto vars:     Size  Location     Type
  1099 ;;  ch              1    0[COMRAM] unsigned char 
  1100 ;; Return value:  Size  Location     Type
  1101 ;;                  1    wreg      void 
  1102 ;; Registers used:
  1103 ;;		wreg
  1104 ;; Tracked objects:
  1105 ;;		On entry : 0/0
  1106 ;;		On exit  : 0/0
  1107 ;;		Unchanged: 0/0
  1108 ;; Data sizes:     COMRAM   BANK0   BANK1   BANK2   BANK3   BANK4   BANK5   BANK6   BANK7   BANK8   BANK9  BANK10  BANK1
      +1  BANK12  BANK13  BANK14  BANK15
  1109 ;;      Params:         0       0       0       0       0       0       0       0       0       0       0       0       
      +0       0       0       0       0
  1110 ;;      Locals:         1       0       0       0       0       0       0       0       0       0       0       0       
      +0       0       0       0       0
  1111 ;;      Temps:          0       0       0       0       0       0       0       0       0       0       0       0       
      +0       0       0       0       0
  1112 ;;      Totals:         1       0       0       0       0       0       0       0       0       0       0       0       
      +0       0       0       0       0
  1113 ;;Total ram usage:        1 bytes
  1114 ;; Hardware stack levels used:    1
  1115 ;; This function calls:
  1116 ;;		Nothing
  1117 ;; This function is called by:
  1118 ;;		_send_data
  1119 ;; This function uses a non-reentrant model
  1120 ;;
  1121                           
  1122                           	psect	text9
  1123  000250                     __ptext9:
  1124                           	opt callstack 0
  1125  000250                     _write_raw:
  1126                           	opt callstack 25
  1127                           
  1128                           ;incstack = 0
  1129                           ;write_raw@ch stored from wreg
  1130  000250  6E17               	movwf	write_raw@ch,c
  1131  000252                     
  1132                           ;data_out.c: 34: while(!PIR1bits.TXIF);
  1133  000252  A89E               	btfss	3998,4,c	;volatile
  1134  000254  D7FE               	goto	i2l1170
  1135                           
  1136                           ;data_out.c: 35: TXREG=ch;
  1137  000256  C017  FFAD         	movff	write_raw@ch,4013	;volatile
  1138  00025A  0012               	return		;funcret
  1139  00025C                     __end_of_write_raw:
  1140                           	opt callstack 0
  1141  0000                     
  1142                           	psect	rparam
  1143  0000                     
  1144                           	psect	temp
  1145  000022                     btemp:
  1146                           	opt callstack 0
  1147  000022                     	ds	1
  1148  0000                     int$flags	set	btemp
  1149  0000                     wtemp8	set	btemp+1
  1150  0000                     ttemp5	set	btemp+1
  1151  0000                     ttemp6	set	btemp+4
  1152  0000                     ttemp7	set	btemp+8
  1153                           tosu	equ	0xFFF
  1154                           tosh	equ	0xFFE
  1155                           tosl	equ	0xFFD
  1156                           stkptr	equ	0xFFC
  1157                           pclatu	equ	0xFFB
  1158                           pclath	equ	0xFFA
  1159                           pcl	equ	0xFF9
  1160                           tblptru	equ	0xFF8
  1161                           tblptrh	equ	0xFF7
  1162                           tblptrl	equ	0xFF6
  1163                           tablat	equ	0xFF5
  1164                           prodh	equ	0xFF4
  1165                           prodl	equ	0xFF3
  1166                           indf0	equ	0xFEF
  1167                           postinc0	equ	0xFEE
  1168                           postdec0	equ	0xFED
  1169                           preinc0	equ	0xFEC
  1170                           plusw0	equ	0xFEB
  1171                           fsr0h	equ	0xFEA
  1172                           fsr0l	equ	0xFE9
  1173                           wreg	equ	0xFE8
  1174                           indf1	equ	0xFE7
  1175                           postinc1	equ	0xFE6
  1176                           postdec1	equ	0xFE5
  1177                           preinc1	equ	0xFE4
  1178                           plusw1	equ	0xFE3
  1179                           fsr1h	equ	0xFE2
  1180                           fsr1l	equ	0xFE1
  1181                           bsr	equ	0xFE0
  1182                           indf2	equ	0xFDF
  1183                           postinc2	equ	0xFDE
  1184                           postdec2	equ	0xFDD
  1185                           preinc2	equ	0xFDC
  1186                           plusw2	equ	0xFDB
  1187                           fsr2h	equ	0xFDA
  1188                           fsr2l	equ	0xFD9
  1189                           status	equ	0xFD8


Data Sizes:
    Strings     0
    Constant    0
    Data        0
    BSS         22
    Persistent  0
    Stack       0

Auto Spaces:
    Space          Size  Autos    Used
    COMRAM           94     11      33
    BANK0           160      0       0
    BANK1           256      0       0
    BANK2           256      0       0
    BANK3           256      0       0
    BANK4           256      0       0
    BANK5           256      0       0
    BANK6           256      0       0
    BANK7           256      0       0
    BANK8           256      0       0
    BANK9           256      0       0
    BANK10          256      0       0
    BANK11          256      0       0
    BANK12          256      0       0
    BANK13          256      0       0
    BANK14          256      0       0
    BANK15           56      0       0

Pointer List with Targets:

    None.

Critical Paths under _main in COMRAM

    _config->_init_data_out

Critical Paths under _timer in COMRAM

    _timer->_timebase_interrupt
    _timebase_interrupt->_send_data
    _send_data->_write_raw

Critical Paths under _main in BANK0

    None.

Critical Paths under _timer in BANK0

    None.

Critical Paths under _main in BANK1

    None.

Critical Paths under _timer in BANK1

    None.

Critical Paths under _main in BANK2

    None.

Critical Paths under _timer in BANK2

    None.

Critical Paths under _main in BANK3

    None.

Critical Paths under _timer in BANK3

    None.

Critical Paths under _main in BANK4

    None.

Critical Paths under _timer in BANK4

    None.

Critical Paths under _main in BANK5

    None.

Critical Paths under _timer in BANK5

    None.

Critical Paths under _main in BANK6

    None.

Critical Paths under _timer in BANK6

    None.

Critical Paths under _main in BANK7

    None.

Critical Paths under _timer in BANK7

    None.

Critical Paths under _main in BANK8

    None.

Critical Paths under _timer in BANK8

    None.

Critical Paths under _main in BANK9

    None.

Critical Paths under _timer in BANK9

    None.

Critical Paths under _main in BANK10

    None.

Critical Paths under _timer in BANK10

    None.

Critical Paths under _main in BANK11

    None.

Critical Paths under _timer in BANK11

    None.

Critical Paths under _main in BANK12

    None.

Critical Paths under _timer in BANK12

    None.

Critical Paths under _main in BANK13

    None.

Critical Paths under _timer in BANK13

    None.

Critical Paths under _main in BANK14

    None.

Critical Paths under _timer in BANK14

    None.

Critical Paths under _main in BANK15

    None.

Critical Paths under _timer in BANK15

    None.

Call Graph Tables:

 ---------------------------------------------------------------------------------
 (Depth) Function   	        Calls       Base Space   Used Autos Params    Refs
 ---------------------------------------------------------------------------------
 (0) _main                                                 1     1      0      98
                                             10 COMRAM     1     1      0
                         _adc_config
                             _config
                          _read_Uout
 ---------------------------------------------------------------------------------
 (1) _read_Uout                                            0     0      0       0
 ---------------------------------------------------------------------------------
 (1) _config                                               0     0      0      98
                      _init_data_out
                      _init_timebase
 ---------------------------------------------------------------------------------
 (2) _init_timebase                                        0     0      0       0
 ---------------------------------------------------------------------------------
 (2) _init_data_out                                        4     2      2      98
                                              6 COMRAM     4     2      2
 ---------------------------------------------------------------------------------
 (1) _adc_config                                           0     0      0       0
 ---------------------------------------------------------------------------------
 Estimated maximum stack depth 2
 ---------------------------------------------------------------------------------
 (Depth) Function   	        Calls       Base Space   Used Autos Params    Refs
 ---------------------------------------------------------------------------------
 (3) _timer                                                2     2      0      90
                                              4 COMRAM     2     2      0
                 _timebase_interrupt
 ---------------------------------------------------------------------------------
 (4) _timebase_interrupt                                   2     2      0      90
                                              2 COMRAM     2     2      0
                          _send_data
 ---------------------------------------------------------------------------------
 (5) _send_data                                            1     1      0      90
                                              1 COMRAM     1     1      0
                          _write_raw
 ---------------------------------------------------------------------------------
 (6) _write_raw                                            1     1      0      22
                                              0 COMRAM     1     1      0
 ---------------------------------------------------------------------------------
 Estimated maximum stack depth 6
 ---------------------------------------------------------------------------------

 Call Graph Graphs:

 _main (ROOT)
   _adc_config
   _config
     _init_data_out
     _init_timebase
   _read_Uout

 _timer (ROOT)
   _timebase_interrupt
     _send_data
       _write_raw

 Address spaces:
Name               Size   Autos  Total    Cost      Usage
BIGRAM             F37      0       0      37        0.0%
EEDATA             400      0       0       0        0.0%
BITBANK14          100      0       0      33        0.0%
BANK14             100      0       0      34        0.0%
BITBANK13          100      0       0      31        0.0%
BANK13             100      0       0      32        0.0%
BITBANK12          100      0       0      29        0.0%
BANK12             100      0       0      30        0.0%
BITBANK11          100      0       0      27        0.0%
BANK11             100      0       0      28        0.0%
BITBANK10          100      0       0      25        0.0%
BANK10             100      0       0      26        0.0%
BITBANK9           100      0       0      23        0.0%
BANK9              100      0       0      24        0.0%
BITBANK8           100      0       0      21        0.0%
BANK8              100      0       0      22        0.0%
BITBANK7           100      0       0      19        0.0%
BANK7              100      0       0      20        0.0%
BITBANK6           100      0       0      17        0.0%
BANK6              100      0       0      18        0.0%
BITBANK5           100      0       0      15        0.0%
BANK5              100      0       0      16        0.0%
BITBANK4           100      0       0      13        0.0%
BANK4              100      0       0      14        0.0%
BITBANK3           100      0       0      10        0.0%
BANK3              100      0       0      11        0.0%
BITBANK2           100      0       0       8        0.0%
BANK2              100      0       0       9        0.0%
BITBANK1           100      0       0       6        0.0%
BANK1              100      0       0       7        0.0%
BITBANK0            A0      0       0       4        0.0%
BANK0               A0      0       0       5        0.0%
BITCOMRAM           5E      0       0       0        0.0%
COMRAM              5E      B      21       1       35.1%
BITBANK15           38      0       0      35        0.0%
BANK15              38      0       0      36        0.0%
BITSFR_1             0      0       0     200        0.0%
SFR_1                0      0       0     200        0.0%
BITSFR               0      0       0     200        0.0%
SFR                  0      0       0     200        0.0%
STACK                0      0       0       2        0.0%
NULL                 0      0       0       0        0.0%
ABS                  0      0      21      12        0.0%
DATA                 0      0      21       3        0.0%
CODE                 0      0       0       0        0.0%


Microchip Technology PIC18 Macro Assembler V2.05 build -831301201 
Symbol Table                                                                                   Tue Apr 09 20:28:03 2019

                         l99 01D8                 __CFG_CP0$OFF 000000                 __CFG_CP1$OFF 000000  
               __CFG_CP2$OFF 000000                 __CFG_CP3$OFF 000000                  __CFG_LVP$ON 000000  
                        l184 0102                 __CFG_CPB$OFF 000000                          u157 021A  
                        u167 01CA                 __CFG_CPD$OFF 000000                          wreg 000FE8  
                 _TXSTA1bits 000FAC   __end_of_timebase_interrupt 00A4                         l1180 00AE  
                       l1182 00B2                         l1176 00A6                         l1178 00AA  
                       l1186 00B8                         l1266 0210                         l1372 00DC  
                       l1374 00E6                         l1376 00F0                         l1378 00FA  
                       _LATA 000F89                         _LATB 000F8A                         _LATC 000F8B  
                       _LATD 000F8C                         _LATE 000F8D                         _PIE1 000F9D  
                       _PIE2 000FA0                         _PIR1 000F9E                         _PIR2 000FA1  
                       _main 0208                         fsr2h 000FDA                         indf2 000FDF  
                       fsr2l 000FD9                         btemp 0022                __CFG_BORV$190 000000  
                       start 0022                __CFG_IESO$OFF 000000                 ___param_bank 000000  
                      ?_main 0017                        _TMR1H 000FCF                        _TMR1L 000FCE  
                      _PORTA 000F80                        _PORTB 000F81                        _PORTC 000F82  
                      _PORTD 000F83                        _PORTE 000F84                        _TRISA 000F92  
                      _TRISB 000F93                        _TRISC 000F94                        _TRISD 000F95  
                      _TRISE 000F96                        _TXREG 000FAD                __CFG_WRT0$OFF 000000  
              __CFG_WRT1$OFF 000000                __CFG_WRT2$OFF 000000                __CFG_WRT3$OFF 000000  
             __CFG_EBTR0$OFF 000000               __CFG_FCMEN$OFF 000000               __CFG_EBTR1$OFF 000000  
             __CFG_EBTR2$OFF 000000               __CFG_EBTR3$OFF 000000                __CFG_WRTB$OFF 000000  
              __CFG_WRTC$OFF 000000                __CFG_WRTD$OFF 000000               __CFG_EBTRB$OFF 000000  
         __CFG_MCLRE$EXTMCLR 000000                        _timer 0008                        _str_i 000B  
             __CFG_BOREN$OFF 000000                        ttemp5 0023                        ttemp6 0026  
                      ttemp7 002A                        status 000FD8                        wtemp8 0023  
             __CFG_HFOFST$ON 000000              __initialization 0224                 __end_of_main 0224  
                     ??_main 0021                __activetblptr 000002                       _ADCON0 000FC2  
                     _ADCON1 000FC1                       _ADCON2 000FC0                       _ADRESH 000FC4  
                     ?_timer 0017                       _ANSELA 000F38                       _ANSELB 000F39  
                     _ANSELC 000F3A                       _ANSELD 000F3B                       _ANSELE 000F3C  
                     i2l1210 01EC                       i2l1170 0252                       i2l1234 0030  
                     i2l1236 003C                       i2l1244 0054                       i2l1254 009E  
                     i2l1238 0048                       i2l1246 0076               __CFG_WDTEN$OFF 000000  
                     _INTCON 000FF2                       _SPBRG1 000FAF       __size_of_init_data_out 0072  
             __CFG_XINST$OFF 000000                       _config 0116                       clear_0 022A  
     __size_of_init_timebase 0040                       tblptru 000FF8                   __accesstop 0060  
    __end_of__initialization 0230              __CFG_PBADEN$OFF 000000                ___rparam_used 000001  
             __pcstackCOMRAM 0017                   _adc_config 023E                __end_of_timer 0022  
              _init_data_out 00A4                      ??_timer 001B              __CFG_PLLCFG$OFF 000000  
     init_data_out@baud_rate 001D           __size_of_read_Uout 0024                _init_timebase 0184  
         _timebase_interrupt 0026           __CFG_CCP2MX$PORTC1 000000           __CFG_CCP3MX$PORTB5 000000  
                    ?_config 0017           __size_of_send_data 0020          ?_timebase_interrupt 0017  
             ?_init_data_out 001D                      _INTCON2 000FF1                      _INTCON3 000FF0  
                    i2u13_40 0088                      i2u14_48 008A         ??_timebase_interrupt 0019  
             ?_init_timebase 0017           __size_of_write_raw 000C              __CFG_PWRTEN$OFF 000000  
                    __Hparam 0000                      __Lparam 0000                  ?_adc_config 0017  
            __size_of_config 006E              __CFG_STVREN$OFF 000000                      __pcinit 0224  
                    __ramtop 1000                      __ptext0 0208                      __ptext1 01C4  
                    __ptext2 0116                      __ptext3 0184                      __ptext4 00A4  
                    __ptext5 023E                      __ptext7 0026                      __ptext8 01E8  
                    __ptext9 0250                    _T1CONbits 000FCD            __end_of_read_Uout 01E8  
                    _rez_adc 0013         end_of_initialization 0230            __end_of_send_data 0208  
              __Lmediumconst 0000                      postinc0 000FEE              ??_init_data_out 001F  
          __end_of_write_raw 025C                   _out_buffer 0001                    _TRISAbits 000F92  
        __size_of_adc_config 0012              ??_init_timebase 001D               __end_of_config 0184  
        start_initialization 0224                     ??_config 0021                  __pbssCOMRAM 0001  
                  __pintcode 0008                 ??_adc_config 001D             __CFG_PRICLKEN$ON 000000  
                 send_data@i 0018                    _read_Uout 01C4               __size_of_timer 001A  
         __end_of_adc_config 0250  __size_of_timebase_interrupt 007E                     _LATDbits 000F8C  
                   _PIE1bits 000F9D                    _send_data 01E8                     _PIR1bits 000F9E  
                   _RCONbits 000FD0             __CFG_WDTPS$32768 000000                   _ADCON0bits 000FC2  
                 _ADCON2bits 000FC0                  write_raw@ch 0017                   ?_read_Uout 0017  
                  _write_raw 0250                   ?_send_data 0017                  _counter_max 0015  
                   __Hrparam 0000                     __Lrparam 0000            __CFG_P2BMX$PORTD2 000000  
      __end_of_init_data_out 0116                   _ANSELAbits 000F38                  _int_counter 0016  
                 ?_write_raw 0017                __size_of_main 001C        __end_of_init_timebase 01C4  
                   int$flags 0022                  _OSCTUNEbits 000F9B                   _INTCONbits 000FF2  
                ??_read_Uout 001D                     intlevel2 0000                   _RCSTA1bits 000FAB  
                ??_send_data 0018                   _OSCCONbits 000FD3            __CFG_T3CMX$PORTC0 000000  
                ??_write_raw 0017            __CFG_FOSC$INTIO67 000000  
